target datalayout = "e-m:e-p270:32:32-p271:32:32-p272:64:64-i64:64-i128:128-f80:128-n8:16:32:64-S128"
target triple = "x86_64-pc-linux-gnu"

%"struct.duckdb_brotli::SharedEncoderDictionary" = type { i32, %"struct.duckdb_brotli::CompoundDictionary", %"struct.duckdb_brotli::ContextualEncoderDictionary", i32 }
%"struct.duckdb_brotli::CompoundDictionary" = type { i64, i64, [16 x ptr], [16 x ptr], [16 x i64], i64, [16 x ptr] }
%"struct.duckdb_brotli::ContextualEncoderDictionary" = type { i32, i8, [64 x i8], [64 x ptr], i64, %"struct.duckdb_brotli::BrotliEncoderDictionary", ptr }
%"struct.duckdb_brotli::BrotliEncoderDictionary" = type { ptr, i32, i32, i64, ptr, ptr, ptr, ptr, %"struct.duckdb_brotli::BrotliTrie", i32, ptr, ptr, ptr, i64, ptr, i64, ptr, ptr }
%"struct.duckdb_brotli::BrotliTrie" = type { ptr, i64, i64, %"struct.duckdb_brotli::BrotliTrieNode" }
%"struct.duckdb_brotli::BrotliTrieNode" = type { i8, i8, i8, i32, i32 }

; Function Attrs: mustprogress uwtable
define internal void @_ZL14BrotliTrieFreePN13duckdb_brotli13MemoryManagerEPNS_10BrotliTrieE(ptr noundef %0, ptr noundef %1) #0 {
  %3 = alloca ptr, align 8
  %4 = alloca ptr, align 8
  store ptr %0, ptr %3, align 8, !tbaa !55
  store ptr %1, ptr %4, align 8, !tbaa !70
  %5 = load ptr, ptr %3, align 8, !tbaa !55
  %6 = load ptr, ptr %4, align 8, !tbaa !70
  %7 = getelementptr inbounds nuw %"struct.duckdb_brotli::BrotliTrie", ptr %6, i32 0, i32 0
  %8 = load ptr, ptr %7, align 8, !tbaa !74
  call void @_ZN13duckdb_brotli10BrotliFreeEPNS_13MemoryManagerEPv(ptr noundef %5, ptr noundef %8)
  ret void
}

; Function Attrs: mustprogress uwtable
define internal void @_ZL30BrotliDestroyEncoderDictionaryPN13duckdb_brotli13MemoryManagerEPNS_23BrotliEncoderDictionaryE(ptr noundef %0, ptr noundef %1) #0 {
  %3 = alloca ptr, align 8
  %4 = alloca ptr, align 8
  store ptr %0, ptr %3, align 8, !tbaa !55
  store ptr %1, ptr %4, align 8, !tbaa !32
  %5 = load ptr, ptr %3, align 8, !tbaa !55
  %6 = load ptr, ptr %4, align 8, !tbaa !32
  %7 = getelementptr inbounds nuw %"struct.duckdb_brotli::BrotliEncoderDictionary", ptr %6, i32 0, i32 11
  %8 = load ptr, ptr %7, align 8, !tbaa !47
  call void @_ZN13duckdb_brotli10BrotliFreeEPNS_13MemoryManagerEPv(ptr noundef %5, ptr noundef %8)
  %9 = load ptr, ptr %3, align 8, !tbaa !55
  %10 = load ptr, ptr %4, align 8, !tbaa !32
  %11 = getelementptr inbounds nuw %"struct.duckdb_brotli::BrotliEncoderDictionary", ptr %10, i32 0, i32 12
  %12 = load ptr, ptr %11, align 8, !tbaa !48
  call void @_ZN13duckdb_brotli10BrotliFreeEPNS_13MemoryManagerEPv(ptr noundef %9, ptr noundef %12)
  %13 = load ptr, ptr %3, align 8, !tbaa !55
  %14 = load ptr, ptr %4, align 8, !tbaa !32
  %15 = getelementptr inbounds nuw %"struct.duckdb_brotli::BrotliEncoderDictionary", ptr %14, i32 0, i32 14
  %16 = load ptr, ptr %15, align 8, !tbaa !50
  call void @_ZN13duckdb_brotli10BrotliFreeEPNS_13MemoryManagerEPv(ptr noundef %13, ptr noundef %16)
  %17 = load ptr, ptr %3, align 8, !tbaa !55
  %18 = load ptr, ptr %4, align 8, !tbaa !32
  %19 = getelementptr inbounds nuw %"struct.duckdb_brotli::BrotliEncoderDictionary", ptr %18, i32 0, i32 16
  %20 = load ptr, ptr %19, align 8, !tbaa !52
  call void @_ZN13duckdb_brotli10BrotliFreeEPNS_13MemoryManagerEPv(ptr noundef %17, ptr noundef %20)
  %21 = load ptr, ptr %3, align 8, !tbaa !55
  %22 = load ptr, ptr %4, align 8, !tbaa !32
  %23 = getelementptr inbounds nuw %"struct.duckdb_brotli::BrotliEncoderDictionary", ptr %22, i32 0, i32 17
  %24 = load ptr, ptr %23, align 8, !tbaa !53
  call void @_ZN13duckdb_brotli10BrotliFreeEPNS_13MemoryManagerEPv(ptr noundef %21, ptr noundef %24)
  %25 = load ptr, ptr %3, align 8, !tbaa !55
  %26 = load ptr, ptr %4, align 8, !tbaa !32
  %27 = getelementptr inbounds nuw %"struct.duckdb_brotli::BrotliEncoderDictionary", ptr %26, i32 0, i32 8
  call void @_ZL14BrotliTrieFreePN13duckdb_brotli13MemoryManagerEPNS_10BrotliTrieE(ptr noundef %25, ptr noundef %27)
  ret void
}

; Function Attrs: mustprogress uwtable
define void @_ZN13duckdb_brotli36BrotliCleanupSharedEncoderDictionaryEPNS_13MemoryManagerEPNS_23SharedEncoderDictionaryE(ptr noundef %0, ptr noundef %1) #0 {
  %3 = alloca ptr, align 8
  %4 = alloca ptr, align 8
  %5 = alloca i64, align 8
  store ptr %0, ptr %3, align 8, !tbaa !55
  store ptr %1, ptr %4, align 8, !tbaa !3
  call void @llvm.lifetime.start.p0(i64 8, ptr %5) #4
  store i64 0, ptr %5, align 8, !tbaa !26
  br label %6

6:                                                ; preds = %21, %2
  %7 = load i64, ptr %5, align 8, !tbaa !26
  %8 = load ptr, ptr %4, align 8, !tbaa !3
  %9 = getelementptr inbounds nuw %"struct.duckdb_brotli::SharedEncoderDictionary", ptr %8, i32 0, i32 1
  %10 = getelementptr inbounds nuw %"struct.duckdb_brotli::CompoundDictionary", ptr %9, i32 0, i32 5
  %11 = load i64, ptr %10, align 8, !tbaa !27
  %12 = icmp ult i64 %7, %11
  br i1 %12, label %13, label %24

13:                                               ; preds = %6
  %14 = load ptr, ptr %3, align 8, !tbaa !55
  %15 = load ptr, ptr %4, align 8, !tbaa !3
  %16 = getelementptr inbounds nuw %"struct.duckdb_brotli::SharedEncoderDictionary", ptr %15, i32 0, i32 1
  %17 = getelementptr inbounds nuw %"struct.duckdb_brotli::CompoundDictionary", ptr %16, i32 0, i32 6
  %18 = load i64, ptr %5, align 8, !tbaa !26
  %19 = getelementptr inbounds nuw [16 x ptr], ptr %17, i64 0, i64 %18
  %20 = load ptr, ptr %19, align 8, !tbaa !57
  call void @_ZN13duckdb_brotli25DestroyPreparedDictionaryEPNS_13MemoryManagerEPNS_18PreparedDictionaryE(ptr noundef %14, ptr noundef %20)
  br label %21

21:                                               ; preds = %13
  %22 = load i64, ptr %5, align 8, !tbaa !26
  %23 = add i64 %22, 1
  store i64 %23, ptr %5, align 8, !tbaa !26
  br label %6, !llvm.loop !59

24:                                               ; preds = %6
  %25 = load ptr, ptr %4, align 8, !tbaa !3
  %26 = getelementptr inbounds nuw %"struct.duckdb_brotli::SharedEncoderDictionary", ptr %25, i32 0, i32 2
  %27 = getelementptr inbounds nuw %"struct.duckdb_brotli::ContextualEncoderDictionary", ptr %26, i32 0, i32 4
  %28 = load i64, ptr %27, align 8, !tbaa !31
  %29 = icmp eq i64 %28, 1
  br i1 %29, label %30, label %35

30:                                               ; preds = %24
  %31 = load ptr, ptr %3, align 8, !tbaa !55
  %32 = load ptr, ptr %4, align 8, !tbaa !3
  %33 = getelementptr inbounds nuw %"struct.duckdb_brotli::SharedEncoderDictionary", ptr %32, i32 0, i32 2
  %34 = getelementptr inbounds nuw %"struct.duckdb_brotli::ContextualEncoderDictionary", ptr %33, i32 0, i32 5
  call void @_ZL30BrotliDestroyEncoderDictionaryPN13duckdb_brotli13MemoryManagerEPNS_23BrotliEncoderDictionaryE(ptr noundef %31, ptr noundef %34)
  br label %67

35:                                               ; preds = %24
  %36 = load ptr, ptr %4, align 8, !tbaa !3
  %37 = getelementptr inbounds nuw %"struct.duckdb_brotli::SharedEncoderDictionary", ptr %36, i32 0, i32 2
  %38 = getelementptr inbounds nuw %"struct.duckdb_brotli::ContextualEncoderDictionary", ptr %37, i32 0, i32 4
  %39 = load i64, ptr %38, align 8, !tbaa !31
  %40 = icmp ugt i64 %39, 1
  br i1 %40, label %41, label %66

41:                                               ; preds = %35
  store i64 0, ptr %5, align 8, !tbaa !26
  br label %42

42:                                               ; preds = %57, %41
  %43 = load i64, ptr %5, align 8, !tbaa !26
  %44 = load ptr, ptr %4, align 8, !tbaa !3
  %45 = getelementptr inbounds nuw %"struct.duckdb_brotli::SharedEncoderDictionary", ptr %44, i32 0, i32 2
  %46 = getelementptr inbounds nuw %"struct.duckdb_brotli::ContextualEncoderDictionary", ptr %45, i32 0, i32 4
  %47 = load i64, ptr %46, align 8, !tbaa !31
  %48 = icmp ult i64 %43, %47
  br i1 %48, label %49, label %60

49:                                               ; preds = %42
  %50 = load ptr, ptr %3, align 8, !tbaa !55
  %51 = load ptr, ptr %4, align 8, !tbaa !3
  %52 = getelementptr inbounds nuw %"struct.duckdb_brotli::SharedEncoderDictionary", ptr %51, i32 0, i32 2
  %53 = getelementptr inbounds nuw %"struct.duckdb_brotli::ContextualEncoderDictionary", ptr %52, i32 0, i32 6
  %54 = load ptr, ptr %53, align 8, !tbaa !30
  %55 = load i64, ptr %5, align 8, !tbaa !26
  %56 = getelementptr inbounds nuw %"struct.duckdb_brotli::BrotliEncoderDictionary", ptr %54, i64 %55
  call void @_ZL30BrotliDestroyEncoderDictionaryPN13duckdb_brotli13MemoryManagerEPNS_23BrotliEncoderDictionaryE(ptr noundef %50, ptr noundef %56)
  br label %57

57:                                               ; preds = %49
  %58 = load i64, ptr %5, align 8, !tbaa !26
  %59 = add i64 %58, 1
  store i64 %59, ptr %5, align 8, !tbaa !26
  br label %42, !llvm.loop !61

60:                                               ; preds = %42
  %61 = load ptr, ptr %3, align 8, !tbaa !55
  %62 = load ptr, ptr %4, align 8, !tbaa !3
  %63 = getelementptr inbounds nuw %"struct.duckdb_brotli::SharedEncoderDictionary", ptr %62, i32 0, i32 2
  %64 = getelementptr inbounds nuw %"struct.duckdb_brotli::ContextualEncoderDictionary", ptr %63, i32 0, i32 6
  %65 = load ptr, ptr %64, align 8, !tbaa !30
  call void @_ZN13duckdb_brotli10BrotliFreeEPNS_13MemoryManagerEPv(ptr noundef %61, ptr noundef %65)
  br label %66

66:                                               ; preds = %60, %35
  br label %67

67:                                               ; preds = %66, %30
  call void @llvm.lifetime.end.p0(i64 8, ptr %5) #4
  ret void
}