; Function Attrs: mustprogress uwtable
define void @_ZN13duckdb_brotli36BrotliCleanupSharedEncoderDictionaryEPNS_13MemoryManagerEPNS_23SharedEncoderDictionaryE(ptr noundef %0, ptr noundef readonly captures(none) %1) local_unnamed_addr #0 {
  %3 = getelementptr inbounds nuw i8, ptr %1, i64 408
  %4 = load i64, ptr %3, align 8, !tbaa !23
  %.not = icmp eq i64 %4, 0
  br i1 %.not, label %._crit_edge, label %.lr.ph

.lr.ph:                                           ; preds = %2
  %5 = getelementptr inbounds nuw i8, ptr %1, i64 416
  br label %6

6:                                                ; preds = %.lr.ph, %6
  %.019 = phi i64 [ 0, %.lr.ph ], [ %9, %6 ]
  %7 = getelementptr inbounds nuw [16 x ptr], ptr %5, i64 0, i64 %.019
  %8 = load ptr, ptr %7, align 8, !tbaa !46
  tail call void @_ZN13duckdb_brotli25DestroyPreparedDictionaryEPNS_13MemoryManagerEPNS_18PreparedDictionaryE(ptr noundef %0, ptr noundef %8)
  %9 = add nuw i64 %.019, 1
  %10 = load i64, ptr %3, align 8, !tbaa !23
  %11 = icmp ult i64 %9, %10
  br i1 %11, label %6, label %._crit_edge, !llvm.loop !48

._crit_edge:                                      ; preds = %6, %2
  %12 = getelementptr inbounds nuw i8, ptr %1, i64 1128
  %13 = load i64, ptr %12, align 8, !tbaa !27
  switch i64 %13, label %.lr.ph21 [
    i64 1, label %15
    i64 0, label %45
  ]

.lr.ph21:                                         ; preds = %._crit_edge
  %14 = getelementptr inbounds nuw i8, ptr %1, i64 1304
  br label %26

15:                                               ; preds = %._crit_edge
  %16 = getelementptr inbounds nuw i8, ptr %1, i64 1248
  %17 = load ptr, ptr %16, align 8, !tbaa !50
  tail call void @_ZN13duckdb_brotli10BrotliFreeEPNS_13MemoryManagerEPv(ptr noundef %0, ptr noundef %17)
  %18 = getelementptr inbounds nuw i8, ptr %1, i64 1256
  %19 = load ptr, ptr %18, align 8, !tbaa !51
  tail call void @_ZN13duckdb_brotli10BrotliFreeEPNS_13MemoryManagerEPv(ptr noundef %0, ptr noundef %19)
  %20 = getelementptr inbounds nuw i8, ptr %1, i64 1272
  %21 = load ptr, ptr %20, align 8, !tbaa !52
  tail call void @_ZN13duckdb_brotli10BrotliFreeEPNS_13MemoryManagerEPv(ptr noundef %0, ptr noundef %21)
  %22 = getelementptr inbounds nuw i8, ptr %1, i64 1288
  %23 = load ptr, ptr %22, align 8, !tbaa !53
  tail call void @_ZN13duckdb_brotli10BrotliFreeEPNS_13MemoryManagerEPv(ptr noundef %0, ptr noundef %23)
  %24 = getelementptr inbounds nuw i8, ptr %1, i64 1296
  %25 = load ptr, ptr %24, align 8, !tbaa !54
  tail call void @_ZN13duckdb_brotli10BrotliFreeEPNS_13MemoryManagerEPv(ptr noundef %0, ptr noundef %25)
  br label %.sink.split

26:                                               ; preds = %.lr.ph21, %26
  %.120 = phi i64 [ 0, %.lr.ph21 ], [ %40, %26 ]
  %27 = load ptr, ptr %14, align 8, !tbaa !26
  %28 = getelementptr inbounds nuw %"struct.duckdb_brotli::BrotliEncoderDictionary", ptr %27, i64 %.120
  %29 = getelementptr inbounds nuw i8, ptr %28, i64 112
  %30 = load ptr, ptr %29, align 8, !tbaa !50
  tail call void @_ZN13duckdb_brotli10BrotliFreeEPNS_13MemoryManagerEPv(ptr noundef %0, ptr noundef %30)
  %31 = getelementptr inbounds nuw i8, ptr %28, i64 120
  %32 = load ptr, ptr %31, align 8, !tbaa !51
  tail call void @_ZN13duckdb_brotli10BrotliFreeEPNS_13MemoryManagerEPv(ptr noundef %0, ptr noundef %32)
  %33 = getelementptr inbounds nuw i8, ptr %28, i64 136
  %34 = load ptr, ptr %33, align 8, !tbaa !52
  tail call void @_ZN13duckdb_brotli10BrotliFreeEPNS_13MemoryManagerEPv(ptr noundef %0, ptr noundef %34)
  %35 = getelementptr inbounds nuw i8, ptr %28, i64 152
  %36 = load ptr, ptr %35, align 8, !tbaa !53
  tail call void @_ZN13duckdb_brotli10BrotliFreeEPNS_13MemoryManagerEPv(ptr noundef %0, ptr noundef %36)
  %37 = getelementptr inbounds nuw i8, ptr %28, i64 160
  %38 = load ptr, ptr %37, align 8, !tbaa !54
  tail call void @_ZN13duckdb_brotli10BrotliFreeEPNS_13MemoryManagerEPv(ptr noundef %0, ptr noundef %38)
  %39 = getelementptr inbounds nuw i8, ptr %28, i64 56
  %.val.i18 = load ptr, ptr %39, align 8, !tbaa !55
  tail call void @_ZN13duckdb_brotli10BrotliFreeEPNS_13MemoryManagerEPv(ptr noundef %0, ptr noundef %.val.i18)
  %40 = add nuw i64 %.120, 1
  %41 = load i64, ptr %12, align 8, !tbaa !27
  %42 = icmp ult i64 %40, %41
  br i1 %42, label %26, label %.sink.split, !llvm.loop !56

.sink.split:                                      ; preds = %26, %15
  %.sink = phi i64 [ 1192, %15 ], [ 1304, %26 ]
  %43 = getelementptr inbounds nuw i8, ptr %1, i64 %.sink
  %44 = load ptr, ptr %43, align 8, !tbaa !57
  tail call void @_ZN13duckdb_brotli10BrotliFreeEPNS_13MemoryManagerEPv(ptr noundef %0, ptr noundef %44)
  br label %45

45:                                               ; preds = %.sink.split, %._crit_edge
  ret void
}